target datalayout = "e-m:e-p270:32:32-p271:32:32-p272:64:64-i64:64-i128:128-f80:128-n8:16:32:64-S128"
target triple = "x86_64-pc-linux-gnu"

%struct._someip_parameter_struct_uat = type { i32, ptr, i32, i32, i8, i32, i32, ptr, i32, i32, ptr }

@g_ascii_table = external constant ptr, align 8
@.str.398 = private unnamed_addr constant [33 x i8] c"Name cannot be empty (ID: 0x%x)!\00", align 1
@.str.402 = private unnamed_addr constant [51 x i8] c"Filter String contains illegal chars '.' (ID: %i )\00", align 1
@.str.403 = private unnamed_addr constant [51 x i8] c"Filter String contains illegal chars '%c' (ID: %i)\00", align 1
@.str.404 = private unnamed_addr constant [51 x i8] c"Filter String contains invalid byte \\%03o (ID: %i)\00", align 1
@.str.405 = private unnamed_addr constant [40 x i8] c"Struct name cannot be empty (ID: 0x%x)!\00", align 1
@.str.406 = private unnamed_addr constant [45 x i8] c"Position >= Number of Parameters (ID: 0x%x)!\00", align 1
@.str.407 = private unnamed_addr constant [43 x i8] c"A struct cannot include itself (ID: 0x%x)!\00", align 1

; Function Attrs: null_pointer_is_valid sspstrong uwtable
define internal ptr @check_filter_string(ptr noundef %0, i32 noundef %1) #0 {
  %3 = alloca ptr, align 8
  %4 = alloca i32, align 4
  %5 = alloca ptr, align 8
  %6 = alloca i8, align 1
  store ptr %0, ptr %3, align 8
  store i32 %1, ptr %4, align 4
  call void @llvm.lifetime.start.p0(i64 8, ptr %5) #19
  store ptr null, ptr %5, align 8
  call void @llvm.lifetime.start.p0(i64 1, ptr %6) #19
  %7 = load ptr, ptr %3, align 8
  %8 = call zeroext i8 @proto_check_field_name(ptr noundef %7)
  store i8 %8, ptr %6, align 1
  %9 = load i8, ptr %6, align 1
  %10 = icmp ne i8 %9, 0
  br i1 %10, label %11, label %39

11:                                               ; preds = %2
  %12 = load i8, ptr %6, align 1
  %13 = zext i8 %12 to i32
  %14 = icmp eq i32 %13, 46
  br i1 %14, label %15, label %18

15:                                               ; preds = %11
  %16 = load i32, ptr %4, align 4
  %17 = call noalias ptr (ptr, ptr, ...) @wmem_strdup_printf(ptr noundef null, ptr noundef @.str.402, i32 noundef %16)
  store ptr %17, ptr %5, align 8
  br label %38

18:                                               ; preds = %11
  %19 = load ptr, ptr @g_ascii_table, align 8
  %20 = load i8, ptr %6, align 1
  %21 = zext i8 %20 to i64
  %22 = getelementptr i16, ptr %19, i64 %21
  %23 = load i16, ptr %22, align 2
  %24 = zext i16 %23 to i32
  %25 = and i32 %24, 64
  %26 = icmp ne i32 %25, 0
  br i1 %26, label %27, label %32

27:                                               ; preds = %18
  %28 = load i8, ptr %6, align 1
  %29 = zext i8 %28 to i32
  %30 = load i32, ptr %4, align 4
  %31 = call noalias ptr (ptr, ptr, ...) @wmem_strdup_printf(ptr noundef null, ptr noundef @.str.403, i32 noundef %29, i32 noundef %30)
  store ptr %31, ptr %5, align 8
  br label %37

32:                                               ; preds = %18
  %33 = load i8, ptr %6, align 1
  %34 = zext i8 %33 to i32
  %35 = load i32, ptr %4, align 4
  %36 = call noalias ptr (ptr, ptr, ...) @wmem_strdup_printf(ptr noundef null, ptr noundef @.str.404, i32 noundef %34, i32 noundef %35)
  store ptr %36, ptr %5, align 8
  br label %37

37:                                               ; preds = %32, %27
  br label %38

38:                                               ; preds = %37, %15
  br label %39

39:                                               ; preds = %38, %2
  %40 = load ptr, ptr %5, align 8
  call void @llvm.lifetime.end.p0(i64 1, ptr %6) #19
  call void @llvm.lifetime.end.p0(i64 8, ptr %5) #19
  ret ptr %40
}

; Function Attrs: null_pointer_is_valid sspstrong uwtable
define internal zeroext i1 @update_someip_parameter_struct(ptr noundef %0, ptr noundef %1) #0 {
  %3 = alloca i1, align 1
  %4 = alloca ptr, align 8
  %5 = alloca ptr, align 8
  %6 = alloca ptr, align 8
  %7 = alloca ptr, align 8
  %8 = alloca i32, align 4
  store ptr %0, ptr %4, align 8
  store ptr %1, ptr %5, align 8
  call void @llvm.lifetime.start.p0(i64 8, ptr %6) #19
  %9 = load ptr, ptr %4, align 8
  store ptr %9, ptr %6, align 8
  call void @llvm.lifetime.start.p0(i64 8, ptr %7) #19
  store ptr null, ptr %7, align 8
  %10 = load ptr, ptr %6, align 8
  %11 = getelementptr inbounds nuw %struct._someip_parameter_struct_uat, ptr %10, i32 0, i32 1
  %12 = load ptr, ptr %11, align 8
  %13 = icmp eq ptr %12, null
  br i1 %13, label %22, label %14

14:                                               ; preds = %2
  %15 = load ptr, ptr %6, align 8
  %16 = getelementptr inbounds nuw %struct._someip_parameter_struct_uat, ptr %15, i32 0, i32 1
  %17 = load ptr, ptr %16, align 8
  %18 = getelementptr i8, ptr %17, i64 0
  %19 = load i8, ptr %18, align 1
  %20 = sext i8 %19 to i32
  %21 = icmp eq i32 %20, 0
  br i1 %21, label %22, label %28

22:                                               ; preds = %14, %2
  %23 = load ptr, ptr %6, align 8
  %24 = getelementptr inbounds nuw %struct._someip_parameter_struct_uat, ptr %23, i32 0, i32 0
  %25 = load i32, ptr %24, align 8
  %26 = call noalias ptr (ptr, ptr, ...) @wmem_strdup_printf(ptr noundef null, ptr noundef @.str.405, i32 noundef %25)
  %27 = load ptr, ptr %5, align 8
  store ptr %26, ptr %27, align 8
  store i1 false, ptr %3, align 1
  store i32 1, ptr %8, align 4
  br label %113

28:                                               ; preds = %14
  %29 = load ptr, ptr %6, align 8
  %30 = getelementptr inbounds nuw %struct._someip_parameter_struct_uat, ptr %29, i32 0, i32 10
  %31 = load ptr, ptr %30, align 8
  %32 = icmp eq ptr %31, null
  br i1 %32, label %41, label %33

33:                                               ; preds = %28
  %34 = load ptr, ptr %6, align 8
  %35 = getelementptr inbounds nuw %struct._someip_parameter_struct_uat, ptr %34, i32 0, i32 10
  %36 = load ptr, ptr %35, align 8
  %37 = getelementptr i8, ptr %36, i64 0
  %38 = load i8, ptr %37, align 1
  %39 = sext i8 %38 to i32
  %40 = icmp eq i32 %39, 0
  br i1 %40, label %41, label %47

41:                                               ; preds = %33, %28
  %42 = load ptr, ptr %6, align 8
  %43 = getelementptr inbounds nuw %struct._someip_parameter_struct_uat, ptr %42, i32 0, i32 0
  %44 = load i32, ptr %43, align 8
  %45 = call noalias ptr (ptr, ptr, ...) @wmem_strdup_printf(ptr noundef null, ptr noundef @.str.405, i32 noundef %44)
  %46 = load ptr, ptr %5, align 8
  store ptr %45, ptr %46, align 8
  store i1 false, ptr %3, align 1
  store i32 1, ptr %8, align 4
  br label %113

47:                                               ; preds = %33
  %48 = load ptr, ptr %6, align 8
  %49 = getelementptr inbounds nuw %struct._someip_parameter_struct_uat, ptr %48, i32 0, i32 10
  %50 = load ptr, ptr %49, align 8
  %51 = load ptr, ptr %6, align 8
  %52 = getelementptr inbounds nuw %struct._someip_parameter_struct_uat, ptr %51, i32 0, i32 0
  %53 = load i32, ptr %52, align 8
  %54 = call ptr @check_filter_string(ptr noundef %50, i32 noundef %53)
  store ptr %54, ptr %7, align 8
  %55 = load ptr, ptr %7, align 8
  %56 = icmp ne ptr %55, null
  br i1 %56, label %57, label %60

57:                                               ; preds = %47
  %58 = load ptr, ptr %7, align 8
  %59 = load ptr, ptr %5, align 8
  store ptr %58, ptr %59, align 8
  store i1 false, ptr %3, align 1
  store i32 1, ptr %8, align 4
  br label %113

60:                                               ; preds = %47
  %61 = load ptr, ptr %6, align 8
  %62 = getelementptr inbounds nuw %struct._someip_parameter_struct_uat, ptr %61, i32 0, i32 7
  %63 = load ptr, ptr %62, align 8
  %64 = icmp eq ptr %63, null
  br i1 %64, label %73, label %65

65:                                               ; preds = %60
  %66 = load ptr, ptr %6, align 8
  %67 = getelementptr inbounds nuw %struct._someip_parameter_struct_uat, ptr %66, i32 0, i32 7
  %68 = load ptr, ptr %67, align 8
  %69 = getelementptr i8, ptr %68, i64 0
  %70 = load i8, ptr %69, align 1
  %71 = sext i8 %70 to i32
  %72 = icmp eq i32 %71, 0
  br i1 %72, label %73, label %79

73:                                               ; preds = %65, %60
  %74 = load ptr, ptr %6, align 8
  %75 = getelementptr inbounds nuw %struct._someip_parameter_struct_uat, ptr %74, i32 0, i32 0
  %76 = load i32, ptr %75, align 8
  %77 = call noalias ptr (ptr, ptr, ...) @wmem_strdup_printf(ptr noundef null, ptr noundef @.str.398, i32 noundef %76)
  %78 = load ptr, ptr %5, align 8
  store ptr %77, ptr %78, align 8
  store i1 false, ptr %3, align 1
  store i32 1, ptr %8, align 4
  br label %113

79:                                               ; preds = %65
  %80 = load ptr, ptr %6, align 8
  %81 = getelementptr inbounds nuw %struct._someip_parameter_struct_uat, ptr %80, i32 0, i32 6
  %82 = load i32, ptr %81, align 8
  %83 = load ptr, ptr %6, align 8
  %84 = getelementptr inbounds nuw %struct._someip_parameter_struct_uat, ptr %83, i32 0, i32 5
  %85 = load i32, ptr %84, align 4
  %86 = icmp uge i32 %82, %85
  br i1 %86, label %87, label %93

87:                                               ; preds = %79
  %88 = load ptr, ptr %6, align 8
  %89 = getelementptr inbounds nuw %struct._someip_parameter_struct_uat, ptr %88, i32 0, i32 0
  %90 = load i32, ptr %89, align 8
  %91 = call noalias ptr (ptr, ptr, ...) @wmem_strdup_printf(ptr noundef null, ptr noundef @.str.406, i32 noundef %90)
  %92 = load ptr, ptr %5, align 8
  store ptr %91, ptr %92, align 8
  store i1 false, ptr %3, align 1
  store i32 1, ptr %8, align 4
  br label %113

93:                                               ; preds = %79
  %94 = load ptr, ptr %6, align 8
  %95 = getelementptr inbounds nuw %struct._someip_parameter_struct_uat, ptr %94, i32 0, i32 8
  %96 = load i32, ptr %95, align 8
  %97 = icmp eq i32 %96, 4
  br i1 %97, label %98, label %112

98:                                               ; preds = %93
  %99 = load ptr, ptr %6, align 8
  %100 = getelementptr inbounds nuw %struct._someip_parameter_struct_uat, ptr %99, i32 0, i32 0
  %101 = load i32, ptr %100, align 8
  %102 = load ptr, ptr %6, align 8
  %103 = getelementptr inbounds nuw %struct._someip_parameter_struct_uat, ptr %102, i32 0, i32 9
  %104 = load i32, ptr %103, align 4
  %105 = icmp eq i32 %101, %104
  br i1 %105, label %106, label %112

106:                                              ; preds = %98
  %107 = load ptr, ptr %6, align 8
  %108 = getelementptr inbounds nuw %struct._someip_parameter_struct_uat, ptr %107, i32 0, i32 0
  %109 = load i32, ptr %108, align 8
  %110 = call noalias ptr (ptr, ptr, ...) @wmem_strdup_printf(ptr noundef null, ptr noundef @.str.407, i32 noundef %109)
  %111 = load ptr, ptr %5, align 8
  store ptr %110, ptr %111, align 8
  store i1 false, ptr %3, align 1
  store i32 1, ptr %8, align 4
  br label %113

112:                                              ; preds = %98, %93
  store i1 true, ptr %3, align 1
  store i32 1, ptr %8, align 4
  br label %113

113:                                              ; preds = %112, %106, %87, %73, %57, %41, %22
  call void @llvm.lifetime.end.p0(i64 8, ptr %7) #19
  call void @llvm.lifetime.end.p0(i64 8, ptr %6) #19
  %114 = load i1, ptr %3, align 1
  ret i1 %114
}