; Function Attrs: null_pointer_is_valid sspstrong uwtable
define internal noundef zeroext i1 @update_someip_parameter_struct(ptr noundef readonly captures(none) %0, ptr noundef writeonly captures(none) %1) #0 {
  %3 = getelementptr inbounds nuw i8, ptr %0, i64 8
  %4 = load ptr, ptr %3, align 8
  %5 = icmp eq ptr %4, null
  br i1 %5, label %9, label %6

6:                                                ; preds = %2
  %7 = load i8, ptr %4, align 1
  %8 = icmp eq i8 %7, 0
  br i1 %8, label %9, label %12

9:                                                ; preds = %6, %2
  %10 = load i32, ptr %0, align 8
  %11 = tail call noalias ptr (ptr, ptr, ...) @wmem_strdup_printf(ptr noundef null, ptr noundef nonnull @.str.405, i32 noundef %10)
  br label %.sink.split

12:                                               ; preds = %6
  %13 = getelementptr inbounds nuw i8, ptr %0, i64 56
  %14 = load ptr, ptr %13, align 8
  %15 = icmp eq ptr %14, null
  br i1 %15, label %19, label %16

16:                                               ; preds = %12
  %17 = load i8, ptr %14, align 1
  %18 = icmp eq i8 %17, 0
  br i1 %18, label %19, label %22

19:                                               ; preds = %16, %12
  %20 = load i32, ptr %0, align 8
  %21 = tail call noalias ptr (ptr, ptr, ...) @wmem_strdup_printf(ptr noundef null, ptr noundef nonnull @.str.405, i32 noundef %20)
  br label %.sink.split

22:                                               ; preds = %16
  %23 = load i32, ptr %0, align 8
  %24 = tail call zeroext i8 @proto_check_field_name(ptr noundef nonnull %14)
  %.not.i = icmp eq i8 %24, 0
  br i1 %.not.i, label %check_filter_string.exit.thread, label %25

25:                                               ; preds = %22
  %26 = zext i8 %24 to i32
  %27 = icmp eq i8 %24, 46
  br i1 %27, label %28, label %30

28:                                               ; preds = %25
  %29 = tail call noalias ptr (ptr, ptr, ...) @wmem_strdup_printf(ptr noundef null, ptr noundef nonnull @.str.402, i32 noundef %23)
  br label %check_filter_string.exit

30:                                               ; preds = %25
  %31 = load ptr, ptr @g_ascii_table, align 8
  %32 = zext i8 %24 to i64
  %33 = getelementptr i16, ptr %31, i64 %32
  %34 = load i16, ptr %33, align 2
  %35 = and i16 %34, 64
  %.not11.i = icmp eq i16 %35, 0
  br i1 %.not11.i, label %38, label %36

36:                                               ; preds = %30
  %37 = tail call noalias ptr (ptr, ptr, ...) @wmem_strdup_printf(ptr noundef null, ptr noundef nonnull @.str.403, i32 noundef %26, i32 noundef %23)
  br label %check_filter_string.exit

38:                                               ; preds = %30
  %39 = tail call noalias ptr (ptr, ptr, ...) @wmem_strdup_printf(ptr noundef null, ptr noundef nonnull @.str.404, i32 noundef %26, i32 noundef %23)
  br label %check_filter_string.exit

check_filter_string.exit:                         ; preds = %28, %36, %38
  %.0.i = phi ptr [ %29, %28 ], [ %37, %36 ], [ %39, %38 ]
  %.not = icmp eq ptr %.0.i, null
  br i1 %.not, label %check_filter_string.exit.thread, label %.sink.split

check_filter_string.exit.thread:                  ; preds = %22, %check_filter_string.exit
  %40 = getelementptr inbounds nuw i8, ptr %0, i64 40
  %41 = load ptr, ptr %40, align 8
  %42 = icmp eq ptr %41, null
  br i1 %42, label %46, label %43

43:                                               ; preds = %check_filter_string.exit.thread
  %44 = load i8, ptr %41, align 1
  %45 = icmp eq i8 %44, 0
  br i1 %45, label %46, label %49

46:                                               ; preds = %43, %check_filter_string.exit.thread
  %47 = load i32, ptr %0, align 8
  %48 = tail call noalias ptr (ptr, ptr, ...) @wmem_strdup_printf(ptr noundef null, ptr noundef nonnull @.str.398, i32 noundef %47)
  br label %.sink.split

49:                                               ; preds = %43
  %50 = getelementptr inbounds nuw i8, ptr %0, i64 32
  %51 = load i32, ptr %50, align 8
  %52 = getelementptr inbounds nuw i8, ptr %0, i64 28
  %53 = load i32, ptr %52, align 4
  %.not33 = icmp ult i32 %51, %53
  br i1 %.not33, label %57, label %54

54:                                               ; preds = %49
  %55 = load i32, ptr %0, align 8
  %56 = tail call noalias ptr (ptr, ptr, ...) @wmem_strdup_printf(ptr noundef null, ptr noundef nonnull @.str.406, i32 noundef %55)
  br label %.sink.split

57:                                               ; preds = %49
  %58 = getelementptr inbounds nuw i8, ptr %0, i64 48
  %59 = load i32, ptr %58, align 8
  %60 = icmp eq i32 %59, 4
  br i1 %60, label %61, label %68

61:                                               ; preds = %57
  %62 = load i32, ptr %0, align 8
  %63 = getelementptr inbounds nuw i8, ptr %0, i64 52
  %64 = load i32, ptr %63, align 4
  %65 = icmp eq i32 %62, %64
  br i1 %65, label %66, label %68

66:                                               ; preds = %61
  %67 = tail call noalias ptr (ptr, ptr, ...) @wmem_strdup_printf(ptr noundef null, ptr noundef nonnull @.str.407, i32 noundef %62)
  br label %.sink.split

.sink.split:                                      ; preds = %check_filter_string.exit, %9, %19, %46, %54, %66
  %.sink = phi ptr [ %67, %66 ], [ %56, %54 ], [ %48, %46 ], [ %21, %19 ], [ %11, %9 ], [ %.0.i, %check_filter_string.exit ]
  store ptr %.sink, ptr %1, align 8
  br label %68

68:                                               ; preds = %.sink.split, %57, %61
  %.0 = phi i1 [ true, %61 ], [ true, %57 ], [ false, %.sink.split ]
  ret i1 %.0
}